Certificate:
    Data:
        Version: 3 (0x2)
        Serial Number:
            d4:65:34:5a:9c:42:64:16:bc:10:26:c9:9f:b7:8b:3d
        Signature Algorithm: sha256WithRSAEncryption
        Issuer: CN=SomeOtherCA
        Validity
            Not Before: Jan 10 00:39:05 2021 GMT
            Not After : Apr 15 00:39:05 2023 GMT
        Subject: CN=myserverfronotherca
        Subject Public Key Info:
            Public Key Algorithm: rsaEncryption
                RSA Public-Key: (2048 bit)
                Modulus:
                    00:de:61:9b:db:68:4f:5c:3d:39:42:b2:3c:8e:46:
                    c8:d2:43:ff:03:87:b6:46:13:6e:2c:89:a9:dc:76:
                    29:3b:f7:e4:ec:a7:d9:91:61:c9:42:ca:42:d7:76:
                    da:1d:30:53:32:a5:ff:ec:95:86:48:13:86:74:e8:
                    83:04:f1:08:c2:cb:2f:8c:35:98:c0:35:5a:0d:26:
                    b9:8e:ab:41:a2:5f:54:d0:e1:0c:c7:bb:7d:d4:ec:
                    d8:bd:18:a5:f1:5d:88:9b:b1:ea:6e:f7:9e:f7:ca:
                    5f:7d:7f:0d:30:8c:94:22:34:9f:50:c3:5f:b1:bd:
                    7c:d0:2b:53:97:1c:c2:63:90:9e:fe:14:e5:4d:5f:
                    5d:1e:13:7c:99:3f:ec:9a:0c:e1:79:69:af:a1:ba:
                    68:39:76:78:b6:10:9b:4a:ce:af:a4:70:34:ba:c3:
                    f4:8e:18:89:a3:53:a7:ec:f3:1d:1c:e9:05:be:38:
                    f4:20:b0:86:54:9d:54:64:30:78:c7:f9:6f:58:07:
                    0f:92:06:a1:81:4f:30:cc:ec:3d:c9:2a:58:65:bf:
                    c6:3c:7e:f2:09:99:db:9f:17:c2:2b:e1:72:95:16:
                    54:63:33:13:85:01:31:04:cb:48:c6:7b:52:d2:1e:
                    39:46:b4:68:fd:99:3d:28:cb:d4:10:81:a0:5b:c8:
                    10:1d
                Exponent: 65537 (0x10001)
        X509v3 extensions:
            X509v3 Basic Constraints: 
                CA:FALSE
            X509v3 Subject Key Identifier: 
                24:BE:5E:6F:4B:E8:83:82:E1:93:72:5A:00:EE:F1:F9:BA:06:79:AB
            X509v3 Authority Key Identifier: 
                keyid:D4:EA:51:B6:FE:60:FF:45:31:38:C9:DA:BE:B8:50:F0:1A:C9:8E:C9
                DirName:/CN=SomeOtherCA
                serial:63:C5:DB:BB:7F:33:3A:3B:FA:76:0A:6F:4F:ED:78:C7:A2:59:5F:21

            X509v3 Extended Key Usage: 
                TLS Web Server Authentication
            X509v3 Key Usage: 
                Digital Signature, Key Encipherment
            X509v3 Subject Alternative Name: 
                DNS:myserverfronotherca
    Signature Algorithm: sha256WithRSAEncryption
         1f:fd:f5:bf:41:15:77:8b:02:59:0e:e1:a6:3d:94:5f:2c:4f:
         4d:34:31:86:e7:cf:0a:16:ca:0a:2a:ee:76:5b:50:f2:ab:ef:
         c6:ec:ca:64:9a:37:0c:8b:e2:d4:2b:e6:1b:34:85:b1:30:70:
         f6:57:2f:9d:fe:0b:d3:e0:a0:2c:0e:95:b1:0d:2a:13:0b:36:
         8e:15:27:e4:af:16:f3:a7:29:df:72:3d:c3:8f:ba:c8:34:d3:
         fa:27:59:78:d5:f0:83:30:b2:b9:8f:ea:a7:6c:40:1e:78:7b:
         43:aa:6b:a4:71:4b:f1:76:bd:c1:76:69:04:23:bd:09:45:82:
         ab:bd:d1:97:cc:91:b2:fa:ab:a6:4b:3d:3a:ab:67:12:b5:7f:
         bb:8f:a9:5d:1c:61:06:22:93:fb:79:1f:ff:2e:1e:d2:0c:d4:
         83:18:bf:cd:46:ca:a0:94:d5:28:06:b7:18:3b:04:19:54:c9:
         e0:fd:bc:e1:37:76:28:e6:49:b7:f5:21:97:25:ce:02:a4:d9:
         4b:a1:69:7e:e2:dc:56:d2:0e:62:a1:fd:8b:47:c7:b7:98:9b:
         ac:21:41:1e:d4:ad:c1:2f:5e:a6:44:47:dd:96:fb:55:8e:32:
         8b:0d:7b:12:55:2a:d1:f4:6b:13:5a:3d:68:bd:4e:74:1b:6d:
         3d:e1:4e:66
-----BEGIN CERTIFICATE-----
MIIDgjCCAmqgAwIBAgIRANRlNFqcQmQWvBAmyZ+3iz0wDQYJKoZIhvcNAQELBQAw
FjEUMBIGA1UEAwwLU29tZU90aGVyQ0EwHhcNMjEwMTEwMDAzOTA1WhcNMjMwNDE1
MDAzOTA1WjAeMRwwGgYDVQQDDBNteXNlcnZlcmZyb25vdGhlcmNhMIIBIjANBgkq
hkiG9w0BAQEFAAOCAQ8AMIIBCgKCAQEA3mGb22hPXD05QrI8jkbI0kP/A4e2RhNu
LImp3HYpO/fk7KfZkWHJQspC13baHTBTMqX/7JWGSBOGdOiDBPEIwssvjDWYwDVa
DSa5jqtBol9U0OEMx7t91OzYvRil8V2Im7Hqbvee98pffX8NMIyUIjSfUMNfsb18
0CtTlxzCY5Ce/hTlTV9dHhN8mT/smgzheWmvobpoOXZ4thCbSs6vpHA0usP0jhiJ
o1On7PMdHOkFvjj0ILCGVJ1UZDB4x/lvWAcPkgahgU8wzOw9ySpYZb/GPH7yCZnb
nxfCK+FylRZUYzMThQExBMtIxntS0h45RrRo/Zk9KMvUEIGgW8gQHQIDAQABo4HC
MIG/MAkGA1UdEwQCMAAwHQYDVR0OBBYEFCS+Xm9L6IOC4ZNyWgDu8fm6BnmrMFEG
A1UdIwRKMEiAFNTqUbb+YP9FMTjJ2r64UPAayY7JoRqkGDAWMRQwEgYDVQQDDAtT
b21lT3RoZXJDQYIUY8Xbu38zOjv6dgpvT+14x6JZXyEwEwYDVR0lBAwwCgYIKwYB
BQUHAwEwCwYDVR0PBAQDAgWgMB4GA1UdEQQXMBWCE215c2VydmVyZnJvbm90aGVy
Y2EwDQYJKoZIhvcNAQELBQADggEBAB/99b9BFXeLAlkO4aY9lF8sT000MYbnzwoW
ygoq7nZbUPKr78bsymSaNwyL4tQr5hs0hbEwcPZXL53+C9PgoCwOlbENKhMLNo4V
J+SvFvOnKd9yPcOPusg00/onWXjV8IMwsrmP6qdsQB54e0Oqa6RxS/F2vcF2aQQj
vQlFgqu90ZfMkbL6q6ZLPTqrZxK1f7uPqV0cYQYik/t5H/8uHtIM1IMYv81GyqCU
1SgGtxg7BBlUyeD9vOE3dijmSbf1IZclzgKk2UuhaX7i3FbSDmKh/YtHx7eYm6wh
QR7UrcEvXqZER92W+1WOMosNexJVKtH0axNaPWi9TnQbbT3hTmY=
-----END CERTIFICATE-----
